target datalayout = "e-m:e-p270:32:32-p271:32:32-p272:64:64-i64:64-i128:128-f80:128-n8:16:32:64-S128"
target triple = "x86_64-pc-linux-gnu"

%struct.evp_pkey_st = type { i32, i32, ptr, ptr, ptr, %union.legacy_pkey_st, %union.legacy_pkey_st, %struct.CRYPTO_REF_COUNT, ptr, ptr, i32, i8, %struct.crypto_ex_data_st, ptr, ptr, i64, ptr, i64, %struct.anon }
%union.legacy_pkey_st = type { ptr }
%struct.CRYPTO_REF_COUNT = type { i32 }
%struct.crypto_ex_data_st = type { ptr, ptr }
%struct.anon = type { i32, i32, i32 }
%struct.ecx_key_st = type { ptr, ptr, i8, [57 x i8], ptr, i64, i32, %struct.CRYPTO_REF_COUNT }

@.str.16 = private unnamed_addr constant [4 x i8] c"pub\00", align 1
@.str.17 = private unnamed_addr constant [5 x i8] c"priv\00", align 1

; Function Attrs: nounwind uwtable
define internal i32 @ecx_pkey_export_to(ptr noundef %0, ptr noundef %1, ptr noundef %2, ptr noundef %3, ptr noundef %4) #0 {
  %6 = alloca i32, align 4
  %7 = alloca ptr, align 8
  %8 = alloca ptr, align 8
  %9 = alloca ptr, align 8
  %10 = alloca ptr, align 8
  %11 = alloca ptr, align 8
  %12 = alloca ptr, align 8
  %13 = alloca ptr, align 8
  %14 = alloca ptr, align 8
  %15 = alloca i32, align 4
  %16 = alloca i32, align 4
  %17 = alloca i32, align 4
  store ptr %0, ptr %7, align 8, !tbaa !3
  store ptr %1, ptr %8, align 8, !tbaa !47
  store ptr %2, ptr %9, align 8, !tbaa !47
  store ptr %3, ptr %10, align 8, !tbaa !50
  store ptr %4, ptr %11, align 8, !tbaa !14
  call void @llvm.lifetime.start.p0(i64 8, ptr %12) #4
  %18 = load ptr, ptr %7, align 8, !tbaa !3
  %19 = getelementptr inbounds nuw %struct.evp_pkey_st, ptr %18, i32 0, i32 5
  %20 = load ptr, ptr %19, align 8, !tbaa !33
  store ptr %20, ptr %12, align 8, !tbaa !31
  call void @llvm.lifetime.start.p0(i64 8, ptr %13) #4
  %21 = call ptr @OSSL_PARAM_BLD_new()
  store ptr %21, ptr %13, align 8, !tbaa !54
  call void @llvm.lifetime.start.p0(i64 8, ptr %14) #4
  store ptr null, ptr %14, align 8, !tbaa !56
  call void @llvm.lifetime.start.p0(i64 4, ptr %15) #4
  store i32 0, ptr %15, align 4, !tbaa !10
  call void @llvm.lifetime.start.p0(i64 4, ptr %16) #4
  store i32 0, ptr %16, align 4, !tbaa !10
  %22 = load ptr, ptr %13, align 8, !tbaa !54
  %23 = icmp eq ptr %22, null
  br i1 %23, label %24, label %25

24:                                               ; preds = %5
  store i32 0, ptr %6, align 4
  store i32 1, ptr %17, align 4
  br label %69

25:                                               ; preds = %5
  %26 = load ptr, ptr %13, align 8, !tbaa !54
  %27 = load ptr, ptr %12, align 8, !tbaa !31
  %28 = getelementptr inbounds nuw %struct.ecx_key_st, ptr %27, i32 0, i32 3
  %29 = getelementptr inbounds [57 x i8], ptr %28, i64 0, i64 0
  %30 = load ptr, ptr %12, align 8, !tbaa !31
  %31 = getelementptr inbounds nuw %struct.ecx_key_st, ptr %30, i32 0, i32 5
  %32 = load i64, ptr %31, align 8, !tbaa !58
  %33 = call i32 @OSSL_PARAM_BLD_push_octet_string(ptr noundef %26, ptr noundef @.str.16, ptr noundef %29, i64 noundef %32)
  %34 = icmp ne i32 %33, 0
  br i1 %34, label %36, label %35

35:                                               ; preds = %25
  br label %65

36:                                               ; preds = %25
  %37 = load i32, ptr %15, align 4, !tbaa !10
  %38 = or i32 %37, 2
  store i32 %38, ptr %15, align 4, !tbaa !10
  %39 = load ptr, ptr %12, align 8, !tbaa !31
  %40 = getelementptr inbounds nuw %struct.ecx_key_st, ptr %39, i32 0, i32 4
  %41 = load ptr, ptr %40, align 8, !tbaa !40
  %42 = icmp ne ptr %41, null
  br i1 %42, label %43, label %57

43:                                               ; preds = %36
  %44 = load ptr, ptr %13, align 8, !tbaa !54
  %45 = load ptr, ptr %12, align 8, !tbaa !31
  %46 = getelementptr inbounds nuw %struct.ecx_key_st, ptr %45, i32 0, i32 4
  %47 = load ptr, ptr %46, align 8, !tbaa !40
  %48 = load ptr, ptr %12, align 8, !tbaa !31
  %49 = getelementptr inbounds nuw %struct.ecx_key_st, ptr %48, i32 0, i32 5
  %50 = load i64, ptr %49, align 8, !tbaa !58
  %51 = call i32 @OSSL_PARAM_BLD_push_octet_string(ptr noundef %44, ptr noundef @.str.17, ptr noundef %47, i64 noundef %50)
  %52 = icmp ne i32 %51, 0
  br i1 %52, label %54, label %53

53:                                               ; preds = %43
  br label %65

54:                                               ; preds = %43
  %55 = load i32, ptr %15, align 4, !tbaa !10
  %56 = or i32 %55, 1
  store i32 %56, ptr %15, align 4, !tbaa !10
  br label %57

57:                                               ; preds = %54, %36
  %58 = load ptr, ptr %13, align 8, !tbaa !54
  %59 = call ptr @OSSL_PARAM_BLD_to_param(ptr noundef %58)
  store ptr %59, ptr %14, align 8, !tbaa !56
  %60 = load ptr, ptr %9, align 8, !tbaa !47
  %61 = load ptr, ptr %8, align 8, !tbaa !47
  %62 = load i32, ptr %15, align 4, !tbaa !10
  %63 = load ptr, ptr %14, align 8, !tbaa !56
  %64 = call i32 %60(ptr noundef %61, i32 noundef %62, ptr noundef %63)
  store i32 %64, ptr %16, align 4, !tbaa !10
  br label %65

65:                                               ; preds = %57, %53, %35
  %66 = load ptr, ptr %13, align 8, !tbaa !54
  call void @OSSL_PARAM_BLD_free(ptr noundef %66)
  %67 = load ptr, ptr %14, align 8, !tbaa !56
  call void @OSSL_PARAM_free(ptr noundef %67)
  %68 = load i32, ptr %16, align 4, !tbaa !10
  store i32 %68, ptr %6, align 4
  store i32 1, ptr %17, align 4
  br label %69

69:                                               ; preds = %65, %24
  call void @llvm.lifetime.end.p0(i64 4, ptr %16) #4
  call void @llvm.lifetime.end.p0(i64 4, ptr %15) #4
  call void @llvm.lifetime.end.p0(i64 8, ptr %14) #4
  call void @llvm.lifetime.end.p0(i64 8, ptr %13) #4
  call void @llvm.lifetime.end.p0(i64 8, ptr %12) #4
  %70 = load i32, ptr %6, align 4
  ret i32 %70
}