; Function Attrs: nounwind uwtable
define internal i32 @ecx_pkey_export_to(ptr noundef readonly captures(none) %0, ptr noundef %1, ptr noundef readonly captures(none) %2, ptr readnone captures(none) %3, ptr readnone captures(none) %4) #0 {
  %6 = getelementptr inbounds nuw i8, ptr %0, i64 32
  %7 = load ptr, ptr %6, align 8, !tbaa !27
  %8 = tail call ptr @OSSL_PARAM_BLD_new() #8
  %9 = icmp eq ptr %8, null
  br i1 %9, label %25, label %10

10:                                               ; preds = %5
  %11 = getelementptr inbounds nuw i8, ptr %7, i64 17
  %12 = getelementptr inbounds nuw i8, ptr %7, i64 88
  %13 = load i64, ptr %12, align 8, !tbaa !36
  %14 = tail call i32 @OSSL_PARAM_BLD_push_octet_string(ptr noundef nonnull %8, ptr noundef nonnull @.str.16, ptr noundef nonnull %11, i64 noundef %13) #8
  %.not = icmp eq i32 %14, 0
  br i1 %.not, label %24, label %15

15:                                               ; preds = %10
  %16 = getelementptr inbounds nuw i8, ptr %7, i64 80
  %17 = load ptr, ptr %16, align 8, !tbaa !28
  %.not24 = icmp eq ptr %17, null
  br i1 %.not24, label %21, label %18

18:                                               ; preds = %15
  %19 = load i64, ptr %12, align 8, !tbaa !36
  %20 = tail call i32 @OSSL_PARAM_BLD_push_octet_string(ptr noundef nonnull %8, ptr noundef nonnull @.str.17, ptr noundef nonnull %17, i64 noundef %19) #8
  %.not25 = icmp eq i32 %20, 0
  br i1 %.not25, label %24, label %21

21:                                               ; preds = %18, %15
  %.019 = phi i32 [ 2, %15 ], [ 3, %18 ]
  %22 = tail call ptr @OSSL_PARAM_BLD_to_param(ptr noundef nonnull %8) #8
  %23 = tail call i32 %2(ptr noundef %1, i32 noundef %.019, ptr noundef %22) #8
  br label %24

24:                                               ; preds = %18, %10, %21
  %.020 = phi ptr [ %22, %21 ], [ null, %18 ], [ null, %10 ]
  %.0 = phi i32 [ %23, %21 ], [ 0, %18 ], [ 0, %10 ]
  tail call void @OSSL_PARAM_BLD_free(ptr noundef nonnull %8) #8
  tail call void @OSSL_PARAM_free(ptr noundef %.020) #8
  br label %25

25:                                               ; preds = %5, %24
  %.021 = phi i32 [ %.0, %24 ], [ 0, %5 ]
  ret i32 %.021
}